; Function Attrs: mustprogress nounwind uwtable
define dso_local noundef i32 @napi_get_arraybuffer_info(ptr noundef %env, ptr noundef %arraybuffer, ptr noundef writeonly %data, ptr noundef writeonly %byte_length) local_unnamed_addr #3 {
entry:
  %cmp = icmp eq ptr %env, null
  br i1 %cmp, label %return, label %do.end

do.end:                                           ; preds = %entry
  %module_api_version.i = getelementptr inbounds i8, ptr %env, i64 184
  %0 = load i32, ptr %module_api_version.i, align 8
  %cmp.i = icmp eq i32 %0, 2147483647
  br i1 %cmp.i, label %land.lhs.true.i, label %_ZN10napi_env__13CheckGCAccessEv.exit

land.lhs.true.i:                                  ; preds = %do.end
  %in_gc_finalizer.i = getelementptr inbounds i8, ptr %env, i64 188
  %1 = load i8, ptr %in_gc_finalizer.i, align 4
  %2 = and i8 %1, 1
  %tobool.not.i = icmp eq i8 %2, 0
  br i1 %tobool.not.i, label %_ZN10napi_env__13CheckGCAccessEv.exit, label %if.then.i

if.then.i:                                        ; preds = %land.lhs.true.i
  tail call void @_ZN6v8impl12OnFatalErrorEPKcS1_(ptr noundef null, ptr noundef nonnull @.str.41) #28
  unreachable

_ZN10napi_env__13CheckGCAccessEv.exit:            ; preds = %do.end, %land.lhs.true.i
  %cmp4.not = icmp eq ptr %arraybuffer, null
  br i1 %cmp4.not, label %if.then5, label %do.end7

if.then5:                                         ; preds = %_ZN10napi_env__13CheckGCAccessEv.exit
  %error_code1.i = getelementptr inbounds i8, ptr %env, i64 156
  store i32 1, ptr %error_code1.i, align 4
  %engine_error_code3.i = getelementptr inbounds i8, ptr %env, i64 152
  store i32 0, ptr %engine_error_code3.i, align 8
  %engine_reserved5.i = getelementptr inbounds i8, ptr %env, i64 144
  store ptr null, ptr %engine_reserved5.i, align 8
  br label %return

do.end7:                                          ; preds = %_ZN10napi_env__13CheckGCAccessEv.exit
  %call13 = tail call noundef zeroext i1 @_ZNK2v85Value13IsArrayBufferEv(ptr noundef nonnull align 1 dereferenceable(1) %arraybuffer) #24
  br i1 %call13, label %do.end17, label %if.then14

if.then14:                                        ; preds = %do.end7
  %error_code1.i9 = getelementptr inbounds i8, ptr %env, i64 156
  store i32 1, ptr %error_code1.i9, align 4
  %engine_error_code3.i10 = getelementptr inbounds i8, ptr %env, i64 152
  store i32 0, ptr %engine_error_code3.i10, align 8
  %engine_reserved5.i11 = getelementptr inbounds i8, ptr %env, i64 144
  store ptr null, ptr %engine_reserved5.i11, align 8
  br label %return

do.end17:                                         ; preds = %do.end7
  %cmp22.not = icmp eq ptr %data, null
  br i1 %cmp22.not, label %if.end26, label %if.then23

if.then23:                                        ; preds = %do.end17
  %call25 = tail call noundef ptr @_ZNK2v811ArrayBuffer4DataEv(ptr noundef nonnull align 1 dereferenceable(1) %arraybuffer) #24
  store ptr %call25, ptr %data, align 8
  br label %if.end26

if.end26:                                         ; preds = %if.then23, %do.end17
  %cmp27.not = icmp eq ptr %byte_length, null
  br i1 %cmp27.not, label %if.end31, label %if.then28

if.then28:                                        ; preds = %if.end26
  %call30 = tail call noundef i64 @_ZNK2v811ArrayBuffer10ByteLengthEv(ptr noundef nonnull align 1 dereferenceable(1) %arraybuffer) #24
  store i64 %call30, ptr %byte_length, align 8
  br label %if.end31

if.end31:                                         ; preds = %if.then28, %if.end26
  %last_error.i = getelementptr inbounds i8, ptr %env, i64 136
  tail call void @llvm.memset.p0.i64(ptr noundef nonnull align 8 dereferenceable(24) %last_error.i, i8 0, i64 24, i1 false)
  br label %return

return:                                           ; preds = %entry, %if.end31, %if.then14, %if.then5
  %retval.0 = phi i32 [ 0, %if.end31 ], [ 1, %if.then14 ], [ 1, %if.then5 ], [ 1, %entry ]
  ret i32 %retval.0
}